target datalayout = "e-m:e-p270:32:32-p271:32:32-p272:64:64-i64:64-i128:128-f80:128-n8:16:32:64-S128"
target triple = "x86_64-pc-linux-gnu"

@.str.14 = private unnamed_addr constant [16 x i8] c"raise_exception\00", align 1

; Function Attrs: nounwind uwtable
define internal ptr @_testcapi_raise_exception(ptr noundef %0, ptr noundef %1, i64 noundef %2) #0 {
  %4 = alloca ptr, align 8
  %5 = alloca ptr, align 8
  %6 = alloca i64, align 8
  %7 = alloca ptr, align 8
  %8 = alloca ptr, align 8
  %9 = alloca i32, align 4
  store ptr %0, ptr %4, align 8, !tbaa !3
  store ptr %1, ptr %5, align 8, !tbaa !23
  store i64 %2, ptr %6, align 8, !tbaa !25
  call void @llvm.lifetime.start.p0(i64 8, ptr %7) #10
  store ptr null, ptr %7, align 8, !tbaa !3
  call void @llvm.lifetime.start.p0(i64 8, ptr %8) #10
  call void @llvm.lifetime.start.p0(i64 4, ptr %9) #10
  %10 = load i64, ptr %6, align 8, !tbaa !25
  %11 = icmp sle i64 2, %10
  br i1 %11, label %12, label %15

12:                                               ; preds = %3
  %13 = load i64, ptr %6, align 8, !tbaa !25
  %14 = icmp sle i64 %13, 2
  br i1 %14, label %20, label %15

15:                                               ; preds = %12, %3
  %16 = load i64, ptr %6, align 8, !tbaa !25
  %17 = call i32 @_PyArg_CheckPositional(ptr noundef @.str.14, i64 noundef %16, i64 noundef 2, i64 noundef 2)
  %18 = icmp ne i32 %17, 0
  br i1 %18, label %20, label %19

19:                                               ; preds = %15
  br label %39

20:                                               ; preds = %15, %12
  %21 = load ptr, ptr %5, align 8, !tbaa !23
  %22 = getelementptr ptr, ptr %21, i64 0
  %23 = load ptr, ptr %22, align 8, !tbaa !3
  store ptr %23, ptr %8, align 8, !tbaa !3
  %24 = load ptr, ptr %5, align 8, !tbaa !23
  %25 = getelementptr ptr, ptr %24, i64 1
  %26 = load ptr, ptr %25, align 8, !tbaa !3
  %27 = call i32 @PyLong_AsInt(ptr noundef %26)
  store i32 %27, ptr %9, align 4, !tbaa !21
  %28 = load i32, ptr %9, align 4, !tbaa !21
  %29 = icmp eq i32 %28, -1
  br i1 %29, label %30, label %34

30:                                               ; preds = %20
  %31 = call ptr @PyErr_Occurred()
  %32 = icmp ne ptr %31, null
  br i1 %32, label %33, label %34

33:                                               ; preds = %30
  br label %39

34:                                               ; preds = %30, %20
  %35 = load ptr, ptr %4, align 8, !tbaa !3
  %36 = load ptr, ptr %8, align 8, !tbaa !3
  %37 = load i32, ptr %9, align 4, !tbaa !21
  %38 = call ptr @_testcapi_raise_exception_impl(ptr noundef %35, ptr noundef %36, i32 noundef %37)
  store ptr %38, ptr %7, align 8, !tbaa !3
  br label %39

39:                                               ; preds = %34, %33, %19
  %40 = load ptr, ptr %7, align 8, !tbaa !3
  call void @llvm.lifetime.end.p0(i64 4, ptr %9) #10
  call void @llvm.lifetime.end.p0(i64 8, ptr %8) #10
  call void @llvm.lifetime.end.p0(i64 8, ptr %7) #10
  ret ptr %40
}