; Function Attrs: nounwind uwtable
define internal noalias noundef ptr @_testcapi_raise_exception(ptr readnone captures(none) %0, ptr noundef readonly captures(none) %1, i64 noundef %2) #0 {
  %or.cond = icmp eq i64 %2, 2
  br i1 %or.cond, label %6, label %4

4:                                                ; preds = %3
  %5 = tail call i32 @_PyArg_CheckPositional(ptr noundef nonnull @.str.14, i64 noundef %2, i64 noundef 2, i64 noundef 2) #8
  %.not = icmp eq i32 %5, 0
  br i1 %.not, label %_testcapi_raise_exception_impl.exit, label %6

6:                                                ; preds = %3, %4
  %7 = load ptr, ptr %1, align 8, !tbaa !3
  %8 = getelementptr i8, ptr %1, i64 8
  %9 = load ptr, ptr %8, align 8, !tbaa !3
  %10 = tail call i32 @PyLong_AsInt(ptr noundef %9) #8
  %11 = icmp eq i32 %10, -1
  br i1 %11, label %12, label %.split

.split:                                           ; preds = %6
  tail call fastcc void @_testcapi_raise_exception_impl(ptr noundef %7, i32 noundef %10)
  br label %_testcapi_raise_exception_impl.exit

12:                                               ; preds = %6
  %13 = tail call ptr @PyErr_Occurred() #8
  %.not12 = icmp eq ptr %13, null
  br i1 %.not12, label %.split10, label %_testcapi_raise_exception_impl.exit

.split10:                                         ; preds = %12
  %14 = tail call ptr @PyTuple_New(i64 noundef -1) #8
  %15 = icmp eq ptr %14, null
  br i1 %15, label %_testcapi_raise_exception_impl.exit, label %.preheader.i

.preheader.i:                                     ; preds = %.split10
  tail call void @PyErr_SetObject(ptr noundef %7, ptr noundef nonnull %14) #8
  %16 = load i32, ptr %14, align 8, !tbaa !20
  %.not.i.i = icmp sgt i32 %16, -1
  br i1 %.not.i.i, label %17, label %_testcapi_raise_exception_impl.exit

17:                                               ; preds = %.preheader.i
  %18 = add nsw i32 %16, -1
  store i32 %18, ptr %14, align 8, !tbaa !20
  %19 = icmp eq i32 %18, 0
  br i1 %19, label %Py_DECREF.exit.sink.split.i, label %_testcapi_raise_exception_impl.exit

Py_DECREF.exit.sink.split.i:                      ; preds = %17
  tail call void @_Py_Dealloc(ptr noundef nonnull %14) #8
  br label %_testcapi_raise_exception_impl.exit

_testcapi_raise_exception_impl.exit:              ; preds = %Py_DECREF.exit.sink.split.i, %17, %.preheader.i, %.split10, %.split, %12, %4
  ret ptr null
}